; Function Attrs: mustprogress nofree norecurse nosync nounwind memory(argmem: readwrite) uwtable
define void @_ZN7RSCoder4InitEi(ptr nocapture noundef nonnull align 4 dereferenceable(11273) %0, i32 noundef %1) local_unnamed_addr #0 align 2 {
  %3 = getelementptr inbounds i8, ptr %0, i64 9220
  store i32 %1, ptr %3, align 4
  %4 = getelementptr inbounds i8, ptr %0, i64 11272
  store i8 0, ptr %4, align 4
  %5 = getelementptr inbounds i8, ptr %0, i64 2048
  br label %6

6:                                                ; preds = %6, %2
  %indvars.iv.i = phi i64 [ 0, %2 ], [ %indvars.iv.next.i, %6 ]
  %.01318.i = phi i32 [ 1, %2 ], [ %spec.select.i, %6 ]
  %7 = sext i32 %.01318.i to i64
  %8 = getelementptr inbounds [256 x i32], ptr %5, i64 0, i64 %7
  %9 = trunc nuw nsw i64 %indvars.iv.i to i32
  store i32 %9, ptr %8, align 4
  %10 = getelementptr inbounds [512 x i32], ptr %0, i64 0, i64 %indvars.iv.i
  store i32 %.01318.i, ptr %10, align 4
  %11 = shl i32 %.01318.i, 1
  %12 = icmp sgt i32 %11, 255
  %13 = xor i32 %11, 285
  %spec.select.i = select i1 %12, i32 %13, i32 %11
  %indvars.iv.next.i = add nuw nsw i64 %indvars.iv.i, 1
  %exitcond.not.i = icmp eq i64 %indvars.iv.next.i, 255
  br i1 %exitcond.not.i, label %.preheader.i, label %6, !llvm.loop !4

.preheader.i:                                     ; preds = %6, %.preheader.i
  %indvars.iv21.i = phi i64 [ %indvars.iv.next22.i, %.preheader.i ], [ 255, %6 ]
  %14 = add nsw i64 %indvars.iv21.i, -255
  %15 = getelementptr inbounds [512 x i32], ptr %0, i64 0, i64 %14
  %16 = load i32, ptr %15, align 4
  %17 = getelementptr inbounds [512 x i32], ptr %0, i64 0, i64 %indvars.iv21.i
  store i32 %16, ptr %17, align 4
  %indvars.iv.next22.i = add nuw nsw i64 %indvars.iv21.i, 1
  %exitcond24.not.i = icmp eq i64 %indvars.iv.next22.i, 512
  br i1 %exitcond24.not.i, label %_ZN7RSCoder6gfInitEv.exit, label %.preheader.i, !llvm.loop !6

_ZN7RSCoder6gfInitEv.exit:                        ; preds = %.preheader.i
  tail call void @_ZN7RSCoder6pnInitEv(ptr noundef nonnull align 4 dereferenceable(11273) %0)
  ret void
}